target datalayout = "e-m:e-p270:32:32-p271:32:32-p272:64:64-i64:64-i128:128-f80:128-n8:16:32:64-S128"
target triple = "x86_64-unknown-linux-gnu"

module asm ".section \22.export_symbol\22,\22a\22 ; __export_symbol_default_cpu_present_to_apicid: ; .asciz \22GPL\22 ; .asciz \22\22 ; .balign 8 ; .quad default_cpu_present_to_apicid ; .previous"

%struct.physid_mask = type { [512 x i64] }
%struct.pcpu_hot = type { %union.anon }
%union.anon = type { %struct.anon, [16 x i8] }
%struct.anon = type { ptr, i32, i32, i64, i64, ptr, i16, i8 }
%struct.cpumask = type { [1 x i64] }
%struct.static_call_key = type { ptr, %union.anon.0 }
%union.anon.0 = type { i64 }

@x86_cpu_to_apicid = external dso_local global i32, section ".data..percpu..read_mostly", align 4
@__per_cpu_offset = external dso_local local_unnamed_addr global [64 x i64], align 16
@nr_cpu_ids = external dso_local local_unnamed_addr global i32, align 4
@__UNIQUE_ID___addressable_default_cpu_present_to_apicid327 = internal global ptr @default_cpu_present_to_apicid, section ".discard.addressable", align 8
@phys_cpu_present_map = external dso_local global %struct.physid_mask, align 8
@pcpu_hot = external dso_local global %struct.pcpu_hot, section ".data..percpu..shared_aligned", align 64
@__cpu_present_mask = external dso_local global %struct.cpumask, align 8
@apic = external dso_local local_unnamed_addr global ptr, align 8
@apic_write.__UNIQUE_ID___addressable___SCK__apic_call_write315 = internal global ptr @__SCK__apic_call_write, section ".discard.addressable", align 8
@__SCK__apic_call_write = external dso_local global %struct.static_call_key, align 8
@apic_read.__UNIQUE_ID___addressable___SCK__apic_call_read314 = internal global ptr @__SCK__apic_call_read, section ".discard.addressable", align 8
@__SCK__apic_call_read = external dso_local global %struct.static_call_key, align 8
@llvm.compiler.used = appending global [3 x ptr] [ptr @__UNIQUE_ID___addressable_default_cpu_present_to_apicid327, ptr @apic_read.__UNIQUE_ID___addressable___SCK__apic_call_read314, ptr @apic_write.__UNIQUE_ID___addressable___SCK__apic_call_write315], section "llvm.metadata"

; Function Attrs: fn_ret_thunk_extern mustprogress nofree norecurse nosync nounwind null_pointer_is_valid willreturn memory(read, inaccessiblemem: none)
define dso_local i32 @apic_default_calc_apicid(i32 noundef %0) local_unnamed_addr #0 align 16 {
  %2 = zext i32 %0 to i64
  %3 = getelementptr [64 x i64], ptr @__per_cpu_offset, i64 0, i64 %2
  %4 = load i64, ptr %3, align 8
  %5 = add i64 %4, ptrtoint (ptr @x86_cpu_to_apicid to i64)
  %6 = inttoptr i64 %5 to ptr
  %7 = load i32, ptr %6, align 4
  ret i32 %7
}

; Function Attrs: fn_ret_thunk_extern mustprogress nofree norecurse nosync nounwind null_pointer_is_valid willreturn memory(none)
define dso_local i32 @apic_flat_calc_apicid(i32 noundef %0) local_unnamed_addr #1 align 16 {
  %2 = shl nuw i32 1, %0
  ret i32 %2
}

; Function Attrs: fn_ret_thunk_extern nounwind null_pointer_is_valid
define dso_local zeroext i1 @default_check_apicid_used(ptr noundef %0, i32 noundef %1) local_unnamed_addr #2 align 16 {
  %3 = zext i32 %1 to i64
  %4 = tail call i8 asm sideeffect " btq  $2,$1\0A\09/* output condition code c*/\0A", "={@ccc},*m,Ir,~{memory},~{dirflag},~{fpsr},~{flags}"(ptr elementtype(i64) %0, i64 %3) #7, !srcloc !5
  %5 = icmp ult i8 %4, 2
  tail call void @llvm.assume(i1 %5)
  %6 = icmp ne i8 %4, 0
  ret i1 %6
}

; Function Attrs: fn_ret_thunk_extern mustprogress nofree norecurse nosync nounwind null_pointer_is_valid willreturn memory(argmem: readwrite)
define dso_local void @default_ioapic_phys_id_map(ptr nocapture noundef readonly %0, ptr nocapture noundef writeonly %1) local_unnamed_addr #3 align 16 {
  tail call void @llvm.memcpy.p0.p0.i64(ptr noundef align 8 dereferenceable(4096) %1, ptr noundef align 8 dereferenceable(4096) %0, i64 4096, i1 false)
  ret void
}

; Function Attrs: nocallback nofree nounwind willreturn memory(argmem: readwrite)
declare void @llvm.memcpy.p0.p0.i64(ptr noalias nocapture writeonly, ptr noalias nocapture readonly, i64, i1 immarg) #4

; Function Attrs: fn_ret_thunk_extern nounwind null_pointer_is_valid
define dso_local i32 @default_cpu_present_to_apicid(i32 noundef %0) #2 align 16 {
  %2 = load i32, ptr @nr_cpu_ids, align 4
  %3 = icmp ugt i32 %2, %0
  br i1 %3, label %4, label %16

4:                                                ; preds = %1
  %5 = zext i32 %0 to i64
  %6 = tail call i8 asm sideeffect " btq  $2,$1\0A\09/* output condition code c*/\0A", "={@ccc},*m,Ir,~{memory},~{dirflag},~{fpsr},~{flags}"(ptr nonnull elementtype(i64) @__cpu_present_mask, i64 %5) #7, !srcloc !5
  %7 = icmp ult i8 %6, 2
  tail call void @llvm.assume(i1 %7)
  %8 = icmp eq i8 %6, 0
  br i1 %8, label %16, label %9

9:                                                ; preds = %4
  %10 = sext i32 %0 to i64
  %11 = getelementptr [64 x i64], ptr @__per_cpu_offset, i64 0, i64 %10
  %12 = load i64, ptr %11, align 8
  %13 = add i64 %12, ptrtoint (ptr @x86_cpu_to_apicid to i64)
  %14 = inttoptr i64 %13 to ptr
  %15 = load i32, ptr %14, align 4
  br label %16

16:                                               ; preds = %9, %4, %1
  %17 = phi i32 [ %15, %9 ], [ 65535, %4 ], [ 65535, %1 ]
  ret i32 %17
}

; Function Attrs: fn_ret_thunk_extern nounwind null_pointer_is_valid
define dso_local zeroext i1 @default_apic_id_registered() local_unnamed_addr #2 align 16 {
  %1 = tail call i32 @__SCT__apic_call_read(i32 noundef 32) #7
  %2 = load ptr, ptr @apic, align 8
  %3 = getelementptr inbounds i8, ptr %2, i64 200
  %4 = load ptr, ptr %3, align 8
  %5 = tail call i32 %4(i32 noundef %1) #7
  %6 = zext i32 %5 to i64
  %7 = tail call i8 asm sideeffect " btq  $2,$1\0A\09/* output condition code c*/\0A", "={@ccc},*m,Ir,~{memory},~{dirflag},~{fpsr},~{flags}"(ptr nonnull elementtype(i64) @phys_cpu_present_map, i64 %6) #7, !srcloc !5
  %8 = icmp ult i8 %7, 2
  tail call void @llvm.assume(i1 %8)
  %9 = icmp ne i8 %7, 0
  ret i1 %9
}

; Function Attrs: fn_ret_thunk_extern nounwind null_pointer_is_valid
define dso_local void @default_init_apic_ldr() local_unnamed_addr #2 align 16 {
  tail call void @__SCT__apic_call_write(i32 noundef 224, i32 noundef -1) #7
  %1 = tail call i32 @__SCT__apic_call_read(i32 noundef 208) #7
  %2 = and i32 %1, 16777215
  %3 = tail call i32 asm "movl %gs:$1, $0", "=r,*m,~{dirflag},~{fpsr},~{flags}"(ptr nonnull elementtype(i32) getelementptr inbounds (%struct.pcpu_hot, ptr @pcpu_hot, i64 0, i32 0, i32 0, i32 2)) #8, !srcloc !6
  %4 = zext nneg i32 %3 to i64
  %5 = shl i64 16777216, %4
  %6 = trunc i64 %5 to i32
  %7 = or disjoint i32 %2, %6
  tail call void @__SCT__apic_call_write(i32 noundef 208, i32 noundef %7) #7
  ret void
}

; Function Attrs: nocallback nofree nosync nounwind willreturn memory(inaccessiblemem: write)
declare void @llvm.assume(i1 noundef) #5

; Function Attrs: null_pointer_is_valid
declare dso_local void @__SCT__apic_call_write(i32 noundef, i32 noundef) local_unnamed_addr #6

; Function Attrs: null_pointer_is_valid
declare dso_local i32 @__SCT__apic_call_read(i32 noundef) local_unnamed_addr #6


!llvm.module.flags = !{!0, !1, !2, !3, !4}

!0 = !{i32 1, !"wchar_size", i32 2}
!1 = !{i32 8, !"cf-protection-branch", i32 1}
!2 = !{i32 4, !"function_return_thunk_extern", i32 1}
!3 = !{i32 4, !"indirect_branch_cs_prefix", i32 1}
!4 = !{i32 4, !"SkipRaxSetup", i32 1}
!5 = !{i64 2148320987, i64 2148321061}
!6 = !{i64 2154375615}
